target datalayout = "e-m:e-p270:32:32-p271:32:32-p272:64:64-i64:64-i128:128-f80:128-n8:16:32:64-S128"
target triple = "x86_64-pc-linux-gnu"

%"class.sat::literal" = type { i32 }
%"struct.nlsat::interval" = type { i8, %"class.sat::literal", ptr, %"class.algebraic_numbers::anum", %"class.algebraic_numbers::anum" }
%"class.algebraic_numbers::anum" = type { ptr }

; Function Attrs: mustprogress uwtable
define hidden noundef zeroext i1 @_ZN5nlsat14check_intervalERN17algebraic_numbers7managerERKNS_8intervalE(ptr noundef nonnull align 8 dereferenceable(17) %0, ptr noundef nonnull align 8 dereferenceable(32) %1) #6 {
  %3 = alloca ptr, align 8
  %4 = alloca ptr, align 8
  %5 = alloca i32, align 4
  store ptr %0, ptr %3, align 8, !tbaa !18
  store ptr %1, ptr %4, align 8, !tbaa !20
  %6 = load ptr, ptr %4, align 8, !tbaa !20
  %7 = load i8, ptr %6, align 8
  %8 = lshr i8 %7, 2
  %9 = and i8 %8, 1
  %10 = zext i8 %9 to i32
  %11 = icmp ne i32 %10, 0
  br i1 %11, label %26, label %12

12:                                               ; preds = %2
  %13 = load ptr, ptr %4, align 8, !tbaa !20
  %14 = load i8, ptr %13, align 8
  %15 = lshr i8 %14, 3
  %16 = and i8 %15, 1
  %17 = zext i8 %16 to i32
  %18 = icmp ne i32 %17, 0
  br i1 %18, label %26, label %19

19:                                               ; preds = %12
  call void @llvm.lifetime.start.p0(i64 4, ptr %5) #3
  %20 = load ptr, ptr %3, align 8, !tbaa !18
  %21 = load ptr, ptr %4, align 8, !tbaa !20
  %22 = getelementptr inbounds nuw %"struct.nlsat::interval", ptr %21, i32 0, i32 3
  %23 = load ptr, ptr %4, align 8, !tbaa !20
  %24 = getelementptr inbounds nuw %"struct.nlsat::interval", ptr %23, i32 0, i32 4
  %25 = call noundef i32 @_ZN17algebraic_numbers7manager7compareERKNS_4anumES3_(ptr noundef nonnull align 8 dereferenceable(17) %20, ptr noundef nonnull align 8 dereferenceable(8) %22, ptr noundef nonnull align 8 dereferenceable(8) %24)
  store i32 %25, ptr %5, align 4, !tbaa !26
  call void @llvm.lifetime.end.p0(i64 4, ptr %5) #3
  br label %26

26:                                               ; preds = %19, %12, %2
  ret i1 true
}