; Function Attrs: mustprogress uwtable
define hidden noundef zeroext i1 @_ZN5nlsat14check_intervalERN17algebraic_numbers7managerERKNS_8intervalE(ptr noundef nonnull align 8 dereferenceable(17) %0, ptr noundef nonnull align 8 dereferenceable(32) %1) local_unnamed_addr #4 {
  %3 = load i8, ptr %1, align 8
  %4 = and i8 %3, 12
  %or.cond = icmp eq i8 %4, 0
  br i1 %or.cond, label %5, label %9

5:                                                ; preds = %2
  %6 = getelementptr inbounds nuw i8, ptr %1, i64 16
  %7 = getelementptr inbounds nuw i8, ptr %1, i64 24
  %8 = tail call noundef i32 @_ZN17algebraic_numbers7manager7compareERKNS_4anumES3_(ptr noundef nonnull align 8 dereferenceable(17) %0, ptr noundef nonnull align 8 dereferenceable(8) %6, ptr noundef nonnull align 8 dereferenceable(8) %7)
  br label %9

9:                                                ; preds = %5, %2
  ret i1 true
}